target datalayout = "e-m:e-p270:32:32-p271:32:32-p272:64:64-i64:64-i128:128-f80:128-n8:16:32:64-S128"
target triple = "x86_64-unknown-linux-gnu"

%"class.std::set.0" = type { %"class.std::_Rb_tree.1" }
%"class.std::_Rb_tree.1" = type { %"struct.std::_Rb_tree<QuantLib::Observer *, QuantLib::Observer *, std::_Identity<QuantLib::Observer *>, std::less<QuantLib::Observer *>>::_Rb_tree_impl" }
%"struct.std::_Rb_tree<QuantLib::Observer *, QuantLib::Observer *, std::_Identity<QuantLib::Observer *>, std::less<QuantLib::Observer *>>::_Rb_tree_impl" = type { [8 x i8], %"struct.std::_Rb_tree_header" }
%"struct.std::_Rb_tree_header" = type { %"struct.std::_Rb_tree_node_base", i64 }
%"struct.std::_Rb_tree_node_base" = type { i32, ptr, ptr, ptr }
%"class.std::set" = type { %"class.std::_Rb_tree" }
%"class.std::_Rb_tree" = type { %"struct.std::_Rb_tree<boost::shared_ptr<QuantLib::Observable>, boost::shared_ptr<QuantLib::Observable>, std::_Identity<boost::shared_ptr<QuantLib::Observable>>, std::less<boost::shared_ptr<QuantLib::Observable>>>::_Rb_tree_impl" }
%"struct.std::_Rb_tree<boost::shared_ptr<QuantLib::Observable>, boost::shared_ptr<QuantLib::Observable>, std::_Identity<boost::shared_ptr<QuantLib::Observable>>, std::less<boost::shared_ptr<QuantLib::Observable>>>::_Rb_tree_impl" = type { [8 x i8], %"struct.std::_Rb_tree_header" }
%"class.boost::detail::shared_count" = type { ptr }
%"class.QuantLib::Observable" = type { ptr, %"class.std::set.0" }
%"class.QuantLib::DayCounter" = type { %"class.boost::shared_ptr.10" }
%"class.boost::shared_ptr.10" = type { ptr, %"class.boost::detail::shared_count" }
%"class.QuantLib::Extrapolator.base" = type <{ ptr, i8 }>
%"class.QuantLib::Calendar" = type { %"class.boost::shared_ptr.11" }
%"class.boost::shared_ptr.11" = type { ptr, %"class.boost::detail::shared_count" }
%"class.QuantLib::Date" = type { i64 }
%"class.QuantLib::Observer" = type { ptr, %"class.std::set" }
%"class.QuantLib::TermStructure.base" = type { %"class.QuantLib::Extrapolator.base", i8, i8, %"class.QuantLib::Calendar", %"class.QuantLib::Date", i32, %"class.QuantLib::DayCounter" }
%"class.QuantLib::VolatilityTermStructure.base" = type <{ %"class.QuantLib::TermStructure.base", i32 }>
%"class.QuantLib::Period" = type { i32, i32 }
%"class.boost::shared_ptr.14" = type { ptr, %"class.boost::detail::shared_count" }
%"class.boost::shared_ptr.15" = type { ptr, %"class.boost::detail::shared_count" }
%"class.QuantLib::ConstantYoYOptionletVolatility" = type { %"class.QuantLib::YoYOptionletVolatilitySurface.base", %"class.QuantLib::Handle", double, double, %"class.QuantLib::Observer", %"class.QuantLib::Observable" }
%"class.QuantLib::YoYOptionletVolatilitySurface.base" = type { %"class.QuantLib::VolatilityTermStructure.base", double, %"class.QuantLib::Period", i32, i8, i32, double }
%"class.QuantLib::Handle" = type { %"class.boost::shared_ptr.13" }
%"class.boost::shared_ptr.13" = type { ptr, %"class.boost::detail::shared_count" }

; Function Attrs: inlinehint mustprogress nounwind uwtable
define linkonce_odr void @_ZN8QuantLib23VolatilityTermStructureD2Ev(ptr noundef nonnull align 8 dereferenceable(68) %this, ptr noundef %vtt) unnamed_addr #5 comdat align 2 {
entry:
  %this.addr = alloca ptr, align 8
  %vtt.addr = alloca ptr, align 8
  store ptr %this, ptr %this.addr, align 8, !tbaa !3
  store ptr %vtt, ptr %vtt.addr, align 8, !tbaa !3
  %this1 = load ptr, ptr %this.addr, align 8
  %vtt2 = load ptr, ptr %vtt.addr, align 8
  %0 = getelementptr inbounds ptr, ptr %vtt2, i64 1
  call void @_ZN8QuantLib13TermStructureD2Ev(ptr noundef nonnull align 8 dereferenceable(64) %this1, ptr noundef %0) #12
  ret void
}

; Function Attrs: inlinehint mustprogress nounwind uwtable
define linkonce_odr void @_ZN5boost6detail21sp_assert_convertibleIN8QuantLib11SimpleQuoteENS2_5QuoteEEEvv() #5 comdat {
entry:
  ret void
}

; Function Attrs: mustprogress nounwind uwtable
define linkonce_odr void @_ZN5boost6detail12shared_countC2EOS1_(ptr noundef nonnull align 8 dereferenceable(8) %this, ptr noundef nonnull align 8 dereferenceable(8) %r) unnamed_addr #1 comdat align 2 {
entry:
  %this.addr = alloca ptr, align 8
  %r.addr = alloca ptr, align 8
  store ptr %this, ptr %this.addr, align 8, !tbaa !3
  store ptr %r, ptr %r.addr, align 8, !tbaa !3
  %this1 = load ptr, ptr %this.addr, align 8
  %pi_ = getelementptr inbounds nuw %"class.boost::detail::shared_count", ptr %this1, i32 0, i32 0
  %0 = load ptr, ptr %r.addr, align 8, !tbaa !3
  %pi_2 = getelementptr inbounds nuw %"class.boost::detail::shared_count", ptr %0, i32 0, i32 0
  %1 = load ptr, ptr %pi_2, align 8, !tbaa !97
  store ptr %1, ptr %pi_, align 8, !tbaa !97
  %2 = load ptr, ptr %r.addr, align 8, !tbaa !3
  %pi_3 = getelementptr inbounds nuw %"class.boost::detail::shared_count", ptr %2, i32 0, i32 0
  store ptr null, ptr %pi_3, align 8, !tbaa !97
  ret void
}

; Function Attrs: mustprogress nounwind uwtable
define linkonce_odr void @_ZN8QuantLib29YoYOptionletVolatilitySurfaceD2Ev(ptr noundef nonnull align 8 dereferenceable(112) %this, ptr noundef %vtt) unnamed_addr #1 comdat align 2 {
entry:
  %this.addr = alloca ptr, align 8
  %vtt.addr = alloca ptr, align 8
  store ptr %this, ptr %this.addr, align 8, !tbaa !3
  store ptr %vtt, ptr %vtt.addr, align 8, !tbaa !3
  %this1 = load ptr, ptr %this.addr, align 8
  %vtt2 = load ptr, ptr %vtt.addr, align 8
  %0 = getelementptr inbounds ptr, ptr %vtt2, i64 1
  call void @_ZN8QuantLib23VolatilityTermStructureD2Ev(ptr noundef nonnull align 8 dereferenceable(68) %this1, ptr noundef %0) #12
  ret void
}

; Function Attrs: mustprogress nounwind uwtable
define linkonce_odr void @_ZN5boost10shared_ptrIN8QuantLib5QuoteEEC2INS1_11SimpleQuoteEEEONS0_IT_EENS_6detail24sp_enable_if_convertibleIS6_S2_E4typeE(ptr noundef nonnull align 8 dereferenceable(16) %this, ptr noundef nonnull align 8 dereferenceable(16) %r) unnamed_addr #1 comdat align 2 {
entry:
  %this.addr = alloca ptr, align 8
  %r.addr = alloca ptr, align 8
  store ptr %this, ptr %this.addr, align 8, !tbaa !3
  store ptr %r, ptr %r.addr, align 8, !tbaa !3
  %this1 = load ptr, ptr %this.addr, align 8
  %px = getelementptr inbounds nuw %"class.boost::shared_ptr.14", ptr %this1, i32 0, i32 0
  %0 = load ptr, ptr %r.addr, align 8, !tbaa !3
  %px2 = getelementptr inbounds nuw %"class.boost::shared_ptr.15", ptr %0, i32 0, i32 0
  %1 = load ptr, ptr %px2, align 8, !tbaa !61
  store ptr %1, ptr %px, align 8, !tbaa !63
  %pn = getelementptr inbounds nuw %"class.boost::shared_ptr.14", ptr %this1, i32 0, i32 1
  %2 = load ptr, ptr %r.addr, align 8, !tbaa !3
  %pn3 = getelementptr inbounds nuw %"class.boost::shared_ptr.15", ptr %2, i32 0, i32 1
  call void @_ZN5boost6detail12shared_countC2EOS1_(ptr noundef nonnull align 8 dereferenceable(8) %pn, ptr noundef nonnull align 8 dereferenceable(8) %pn3) #12
  call void @_ZN5boost6detail21sp_assert_convertibleIN8QuantLib11SimpleQuoteENS2_5QuoteEEEvv() #12
  %3 = load ptr, ptr %r.addr, align 8, !tbaa !3
  %px4 = getelementptr inbounds nuw %"class.boost::shared_ptr.15", ptr %3, i32 0, i32 0
  store ptr null, ptr %px4, align 8, !tbaa !61
  ret void
}

; Function Attrs: mustprogress uwtable
define void @_ZN8QuantLib30ConstantYoYOptionletVolatilityC2EdjRKNS_8CalendarENS_21BusinessDayConventionERKNS_10DayCounterERKNS_6PeriodENS_9FrequencyEbddNS_14VolatilityTypeEd(ptr noundef nonnull align 8 dereferenceable(144) %this, ptr noundef %vtt, double noundef %v, i32 noundef %settlementDays, ptr noundef nonnull align 8 dereferenceable(16) %cal, i32 noundef %bdc, ptr noundef nonnull align 8 dereferenceable(16) %dc, ptr noundef nonnull align 4 dereferenceable(8) %observationLag, i32 noundef %frequency, i1 noundef zeroext %indexIsInterpolated, double noundef %minStrike, double noundef %maxStrike, i32 noundef %volType, double noundef %displacement) unnamed_addr #2 align 2 personality ptr @__gxx_personality_v0 {
entry:
  %this.addr = alloca ptr, align 8
  %vtt.addr = alloca ptr, align 8
  %v.addr = alloca double, align 8
  %settlementDays.addr = alloca i32, align 4
  %cal.addr = alloca ptr, align 8
  %bdc.addr = alloca i32, align 4
  %dc.addr = alloca ptr, align 8
  %observationLag.addr = alloca ptr, align 8
  %frequency.addr = alloca i32, align 4
  %indexIsInterpolated.addr = alloca i8, align 1
  %minStrike.addr = alloca double, align 8
  %maxStrike.addr = alloca double, align 8
  %volType.addr = alloca i32, align 4
  %displacement.addr = alloca double, align 8
  %ref.tmp = alloca %"class.boost::shared_ptr.14", align 8
  %ref.tmp7 = alloca %"class.boost::shared_ptr.15", align 8
  %exn.slot = alloca ptr, align 8
  %ehselector.slot = alloca i32, align 4
  store ptr %this, ptr %this.addr, align 8, !tbaa !3
  store ptr %vtt, ptr %vtt.addr, align 8, !tbaa !3
  store double %v, ptr %v.addr, align 8, !tbaa !38
  store i32 %settlementDays, ptr %settlementDays.addr, align 4, !tbaa !31
  store ptr %cal, ptr %cal.addr, align 8, !tbaa !3
  store i32 %bdc, ptr %bdc.addr, align 4, !tbaa !32
  store ptr %dc, ptr %dc.addr, align 8, !tbaa !3
  store ptr %observationLag, ptr %observationLag.addr, align 8, !tbaa !3
  store i32 %frequency, ptr %frequency.addr, align 4, !tbaa !33
  %storedv = zext i1 %indexIsInterpolated to i8
  store i8 %storedv, ptr %indexIsInterpolated.addr, align 1, !tbaa !35
  store double %minStrike, ptr %minStrike.addr, align 8, !tbaa !38
  store double %maxStrike, ptr %maxStrike.addr, align 8, !tbaa !38
  store i32 %volType, ptr %volType.addr, align 4, !tbaa !36
  store double %displacement, ptr %displacement.addr, align 8, !tbaa !38
  %this1 = load ptr, ptr %this.addr, align 8
  %vtt2 = load ptr, ptr %vtt.addr, align 8
  %0 = load i32, ptr %settlementDays.addr, align 4, !tbaa !31
  %1 = load ptr, ptr %cal.addr, align 8, !tbaa !3
  %2 = load i32, ptr %bdc.addr, align 4, !tbaa !32
  %3 = load ptr, ptr %dc.addr, align 8, !tbaa !3
  %4 = load ptr, ptr %observationLag.addr, align 8, !tbaa !3
  %5 = load i32, ptr %frequency.addr, align 4, !tbaa !33
  %6 = load i8, ptr %indexIsInterpolated.addr, align 1, !tbaa !35, !range !46, !noundef !47
  %loadedv = trunc i8 %6 to i1
  %7 = load i32, ptr %volType.addr, align 4, !tbaa !36
  %8 = load double, ptr %displacement.addr, align 8, !tbaa !38
  %9 = getelementptr inbounds ptr, ptr %vtt2, i64 1
  call void @_ZN8QuantLib29YoYOptionletVolatilitySurfaceC2EjRKNS_8CalendarENS_21BusinessDayConventionERKNS_10DayCounterERKNS_6PeriodENS_9FrequencyEbNS_14VolatilityTypeEd(ptr noundef nonnull align 8 dereferenceable(112) %this1, ptr noundef %9, i32 noundef %0, ptr noundef nonnull align 8 dereferenceable(16) %1, i32 noundef %2, ptr noundef nonnull align 8 dereferenceable(16) %3, ptr noundef nonnull align 4 dereferenceable(8) %4, i32 noundef %5, i1 noundef zeroext %loadedv, i32 noundef %7, double noundef %8)
  %10 = load ptr, ptr %vtt2, align 8
  store ptr %10, ptr %this1, align 8, !tbaa !12
  %11 = getelementptr inbounds ptr, ptr %vtt2, i64 10
  %12 = load ptr, ptr %11, align 8
  %vtable = load ptr, ptr %this1, align 8, !tbaa !12
  %vbase.offset.ptr = getelementptr i8, ptr %vtable, i64 -24
  %vbase.offset = load i64, ptr %vbase.offset.ptr, align 8
  %add.ptr = getelementptr inbounds i8, ptr %this1, i64 %vbase.offset
  store ptr %12, ptr %add.ptr, align 8, !tbaa !12
  %13 = getelementptr inbounds ptr, ptr %vtt2, i64 11
  %14 = load ptr, ptr %13, align 8
  %vtable3 = load ptr, ptr %this1, align 8, !tbaa !12
  %vbase.offset.ptr4 = getelementptr i8, ptr %vtable3, i64 -32
  %vbase.offset5 = load i64, ptr %vbase.offset.ptr4, align 8
  %add.ptr6 = getelementptr inbounds i8, ptr %this1, i64 %vbase.offset5
  store ptr %14, ptr %add.ptr6, align 8, !tbaa !12
  %volatility_ = getelementptr inbounds nuw %"class.QuantLib::ConstantYoYOptionletVolatility", ptr %this1, i32 0, i32 1
  call void @llvm.lifetime.start.p0(i64 16, ptr %ref.tmp) #12
  call void @llvm.lifetime.start.p0(i64 16, ptr %ref.tmp7) #12
  invoke void @_ZN5boost11make_sharedIN8QuantLib11SimpleQuoteEJRKdEEENS_6detail15sp_if_not_arrayIT_E4typeEDpOT0_(ptr dead_on_unwind writable sret(%"class.boost::shared_ptr.15") align 8 %ref.tmp7, ptr noundef nonnull align 8 dereferenceable(8) %v.addr)
          to label %invoke.cont unwind label %lpad

invoke.cont:                                      ; preds = %entry
  call void @_ZN5boost10shared_ptrIN8QuantLib5QuoteEEC2INS1_11SimpleQuoteEEEONS0_IT_EENS_6detail24sp_enable_if_convertibleIS6_S2_E4typeE(ptr noundef nonnull align 8 dereferenceable(16) %ref.tmp, ptr noundef nonnull align 8 dereferenceable(16) %ref.tmp7) #12
  invoke void @_ZN8QuantLib6HandleINS_5QuoteEEC2EON5boost10shared_ptrIS1_EEb(ptr noundef nonnull align 8 dereferenceable(16) %volatility_, ptr noundef nonnull align 8 dereferenceable(16) %ref.tmp, i1 noundef zeroext true)
          to label %invoke.cont9 unwind label %lpad8

invoke.cont9:                                     ; preds = %invoke.cont
  call void @_ZN5boost10shared_ptrIN8QuantLib5QuoteEED2Ev(ptr noundef nonnull align 8 dereferenceable(16) %ref.tmp) #12
  call void @_ZN5boost10shared_ptrIN8QuantLib11SimpleQuoteEED2Ev(ptr noundef nonnull align 8 dereferenceable(16) %ref.tmp7) #12
  call void @llvm.lifetime.end.p0(i64 16, ptr %ref.tmp7) #12
  call void @llvm.lifetime.end.p0(i64 16, ptr %ref.tmp) #12
  %minStrike_ = getelementptr inbounds nuw %"class.QuantLib::ConstantYoYOptionletVolatility", ptr %this1, i32 0, i32 2
  %15 = load double, ptr %minStrike.addr, align 8, !tbaa !38
  store double %15, ptr %minStrike_, align 8, !tbaa !56
  %maxStrike_ = getelementptr inbounds nuw %"class.QuantLib::ConstantYoYOptionletVolatility", ptr %this1, i32 0, i32 3
  %16 = load double, ptr %maxStrike.addr, align 8, !tbaa !38
  store double %16, ptr %maxStrike_, align 8, !tbaa !60
  ret void

lpad:                                             ; preds = %entry
  %17 = landingpad { ptr, i32 }
          cleanup
  %18 = extractvalue { ptr, i32 } %17, 0
  store ptr %18, ptr %exn.slot, align 8
  %19 = extractvalue { ptr, i32 } %17, 1
  store i32 %19, ptr %ehselector.slot, align 4
  br label %ehcleanup

lpad8:                                            ; preds = %invoke.cont
  %20 = landingpad { ptr, i32 }
          cleanup
  %21 = extractvalue { ptr, i32 } %20, 0
  store ptr %21, ptr %exn.slot, align 8
  %22 = extractvalue { ptr, i32 } %20, 1
  store i32 %22, ptr %ehselector.slot, align 4
  call void @_ZN5boost10shared_ptrIN8QuantLib5QuoteEED2Ev(ptr noundef nonnull align 8 dereferenceable(16) %ref.tmp) #12
  call void @_ZN5boost10shared_ptrIN8QuantLib11SimpleQuoteEED2Ev(ptr noundef nonnull align 8 dereferenceable(16) %ref.tmp7) #12
  br label %ehcleanup

ehcleanup:                                        ; preds = %lpad8, %lpad
  call void @llvm.lifetime.end.p0(i64 16, ptr %ref.tmp7) #12
  call void @llvm.lifetime.end.p0(i64 16, ptr %ref.tmp) #12
  %23 = getelementptr inbounds ptr, ptr %vtt2, i64 1
  call void @_ZN8QuantLib29YoYOptionletVolatilitySurfaceD2Ev(ptr noundef nonnull align 8 dereferenceable(112) %this1, ptr noundef %23) #12
  br label %eh.resume

eh.resume:                                        ; preds = %ehcleanup
  %exn = load ptr, ptr %exn.slot, align 8
  %sel = load i32, ptr %ehselector.slot, align 4
  %lpad.val = insertvalue { ptr, i32 } poison, ptr %exn, 0
  %lpad.val12 = insertvalue { ptr, i32 } %lpad.val, i32 %sel, 1
  resume { ptr, i32 } %lpad.val12
}